target datalayout = "e-m:e-p270:32:32-p271:32:32-p272:64:64-i64:64-i128:128-f80:128-n8:16:32:64-S128"
target triple = "x86_64-pc-linux-gnu"

%"class.Ipopt::Vector" = type <{ %"class.Ipopt::TaggedObject", %"class.Ipopt::SmartPtr.5", %"class.Ipopt::CachedResults", i32, [4 x i8], double, i32, [4 x i8], double, i32, [4 x i8], double, i32, [4 x i8], double, i32, [4 x i8], double, i32, [4 x i8], double, i32, [4 x i8], double, i32, i8, [3 x i8] }>
%"class.Ipopt::TaggedObject" = type { %"class.Ipopt::ReferencedObject.base", %"class.Ipopt::Subject", i32, i32 }
%"class.Ipopt::ReferencedObject.base" = type <{ ptr, i32 }>
%"class.Ipopt::Subject" = type { ptr, %"class.std::vector.0" }
%"class.std::vector.0" = type { %"struct.std::_Vector_base.1" }
%"struct.std::_Vector_base.1" = type { %"struct.std::_Vector_base<Ipopt::Observer *, std::allocator<Ipopt::Observer *>>::_Vector_impl" }
%"struct.std::_Vector_base<Ipopt::Observer *, std::allocator<Ipopt::Observer *>>::_Vector_impl" = type { %"struct.std::_Vector_base<Ipopt::Observer *, std::allocator<Ipopt::Observer *>>::_Vector_impl_data" }
%"struct.std::_Vector_base<Ipopt::Observer *, std::allocator<Ipopt::Observer *>>::_Vector_impl_data" = type { ptr, ptr, ptr }
%"class.Ipopt::SmartPtr.5" = type { ptr }
%"class.Ipopt::CachedResults" = type { ptr, i32, ptr }

; Function Attrs: mustprogress nounwind uwtable
define linkonce_odr noundef i32 @_ZNK5Ipopt12TaggedObject6GetTagEv(ptr noundef nonnull align 8 dereferenceable(56) %0) #1 comdat align 2 {
  %2 = alloca ptr, align 8
  store ptr %0, ptr %2, align 8
  %3 = load ptr, ptr %2, align 8
  %4 = getelementptr inbounds %"class.Ipopt::TaggedObject", ptr %3, i32 0, i32 2
  %5 = load i32, ptr %4, align 8
  ret i32 %5
}

; Function Attrs: mustprogress uwtable
define linkonce_odr noundef double @_ZNK5Ipopt6Vector4AsumEv(ptr noundef nonnull align 8 dereferenceable(205) %0) #0 comdat align 2 {
  %2 = alloca ptr, align 8
  store ptr %0, ptr %2, align 8
  %3 = load ptr, ptr %2, align 8
  %4 = getelementptr inbounds %"class.Ipopt::Vector", ptr %3, i32 0, i32 6
  %5 = load i32, ptr %4, align 8
  %6 = call noundef i32 @_ZNK5Ipopt12TaggedObject6GetTagEv(ptr noundef nonnull align 8 dereferenceable(56) %3)
  %7 = icmp ne i32 %5, %6
  br i1 %7, label %8, label %16

8:                                                ; preds = %1
  %9 = load ptr, ptr %3, align 8
  %10 = getelementptr inbounds ptr, ptr %9, i64 7
  %11 = load ptr, ptr %10, align 8
  %12 = call noundef double %11(ptr noundef nonnull align 8 dereferenceable(205) %3)
  %13 = getelementptr inbounds %"class.Ipopt::Vector", ptr %3, i32 0, i32 8
  store double %12, ptr %13, align 8
  %14 = call noundef i32 @_ZNK5Ipopt12TaggedObject6GetTagEv(ptr noundef nonnull align 8 dereferenceable(56) %3)
  %15 = getelementptr inbounds %"class.Ipopt::Vector", ptr %3, i32 0, i32 6
  store i32 %14, ptr %15, align 8
  br label %16

16:                                               ; preds = %8, %1
  %17 = getelementptr inbounds %"class.Ipopt::Vector", ptr %3, i32 0, i32 8
  %18 = load double, ptr %17, align 8
  ret double %18
}

; Function Attrs: mustprogress uwtable
define noundef zeroext i1 @_ZNK5Ipopt6Vector19HasValidNumbersImplEv(ptr noundef nonnull align 8 dereferenceable(205) %0) unnamed_addr #0 align 2 {
  %2 = alloca ptr, align 8
  %3 = alloca double, align 8
  store ptr %0, ptr %2, align 8
  %4 = load ptr, ptr %2, align 8
  %5 = call noundef double @_ZNK5Ipopt6Vector4AsumEv(ptr noundef nonnull align 8 dereferenceable(205) %4)
  store double %5, ptr %3, align 8
  %6 = load double, ptr %3, align 8
  %7 = call noundef zeroext i1 @_ZN5Ipopt14IsFiniteNumberEd(double noundef %6)
  ret i1 %7
}