; Function Attrs: mustprogress uwtable
define noundef zeroext i1 @_ZNK5Ipopt6Vector19HasValidNumbersImplEv(ptr noundef nonnull align 8 dereferenceable(205) %0) unnamed_addr #0 align 2 {
  %2 = getelementptr inbounds i8, ptr %0, i64 104
  %3 = load i32, ptr %2, align 8
  %4 = getelementptr inbounds i8, ptr %0, i64 48
  %5 = load i32, ptr %4, align 8
  %.not.i = icmp eq i32 %3, %5
  br i1 %.not.i, label %._crit_edge.i, label %6

._crit_edge.i:                                    ; preds = %1
  %.phi.trans.insert.i = getelementptr inbounds i8, ptr %0, i64 112
  %.pre.i = load double, ptr %.phi.trans.insert.i, align 8
  br label %_ZNK5Ipopt6Vector4AsumEv.exit

6:                                                ; preds = %1
  %7 = load ptr, ptr %0, align 8
  %8 = getelementptr inbounds i8, ptr %7, i64 56
  %9 = load ptr, ptr %8, align 8
  %10 = tail call noundef double %9(ptr noundef nonnull align 8 dereferenceable(205) %0)
  %11 = getelementptr inbounds i8, ptr %0, i64 112
  store double %10, ptr %11, align 8
  %12 = load i32, ptr %4, align 8
  store i32 %12, ptr %2, align 8
  br label %_ZNK5Ipopt6Vector4AsumEv.exit

_ZNK5Ipopt6Vector4AsumEv.exit:                    ; preds = %._crit_edge.i, %6
  %13 = phi double [ %.pre.i, %._crit_edge.i ], [ %10, %6 ]
  %14 = tail call noundef zeroext i1 @_ZN5Ipopt14IsFiniteNumberEd(double noundef %13)
  ret i1 %14
}